target datalayout = "e-m:e-p270:32:32-p271:32:32-p272:64:64-i64:64-i128:128-f80:128-n8:16:32:64-S128"
target triple = "x86_64-unknown-linux-gnu"

%"class.std::basic_string_view" = type { i64, ptr }
%"struct.grpc_core::XdsHttpFilterImpl::FilterConfig" = type { %"class.std::basic_string_view", %"class.grpc_core::experimental::Json" }
%"class.grpc_core::experimental::Json" = type { %"class.std::variant" }
%"class.std::variant" = type { %"struct.std::__detail::__variant::_Variant_base.base", [7 x i8] }
%"struct.std::__detail::__variant::_Variant_base.base" = type { %"struct.std::__detail::__variant::_Move_assign_base.base" }
%"struct.std::__detail::__variant::_Move_assign_base.base" = type { %"struct.std::__detail::__variant::_Copy_assign_base.base" }
%"struct.std::__detail::__variant::_Copy_assign_base.base" = type { %"struct.std::__detail::__variant::_Move_ctor_base.base" }
%"struct.std::__detail::__variant::_Move_ctor_base.base" = type { %"struct.std::__detail::__variant::_Copy_ctor_base.base" }
%"struct.std::__detail::__variant::_Copy_ctor_base.base" = type { %"struct.std::__detail::__variant::_Variant_storage.base" }
%"struct.std::__detail::__variant::_Variant_storage.base" = type { %"union.std::__detail::__variant::_Variadic_union", i8 }
%"union.std::__detail::__variant::_Variadic_union" = type { %"union.std::__detail::__variant::_Variadic_union.1" }
%"union.std::__detail::__variant::_Variadic_union.1" = type { %"union.std::__detail::__variant::_Variadic_union.3" }
%"union.std::__detail::__variant::_Variadic_union.3" = type { %"union.std::__detail::__variant::_Variadic_union.5" }
%"union.std::__detail::__variant::_Variadic_union.5" = type { %"union.std::__detail::__variant::_Variadic_union.8" }
%"union.std::__detail::__variant::_Variadic_union.8" = type { %"struct.std::__detail::__variant::_Uninitialized.9" }
%"struct.std::__detail::__variant::_Uninitialized.9" = type { %"struct.__gnu_cxx::__aligned_membuf.10" }
%"struct.__gnu_cxx::__aligned_membuf.10" = type { [48 x i8] }
%"class.std::__cxx11::basic_string" = type { %"struct.std::__cxx11::basic_string<char>::_Alloc_hider", i64, %union.anon.56 }
%"struct.std::__cxx11::basic_string<char>::_Alloc_hider" = type { ptr }
%union.anon.56 = type { i64, [8 x i8] }
%"class.std::allocator.53" = type { i8 }
%"class.absl::lts_20230802::StatusOr" = type { %"class.absl::lts_20230802::internal_statusor::StatusOrData" }
%"class.absl::lts_20230802::internal_statusor::StatusOrData" = type { %union.anon, %union.anon.52 }
%union.anon = type { %"class.absl::lts_20230802::Status" }
%"class.absl::lts_20230802::Status" = type { i64 }
%union.anon.52 = type { %"struct.grpc_core::XdsHttpFilterImpl::ServiceConfigJsonEntry" }
%"struct.grpc_core::XdsHttpFilterImpl::ServiceConfigJsonEntry" = type { %"class.std::__cxx11::basic_string", %"class.std::__cxx11::basic_string" }

@.str.6 = private unnamed_addr constant [11 x i8] c"rbacPolicy\00", align 1
@.str.96 = private unnamed_addr constant [50 x i8] c"basic_string: construction from null is not valid\00", align 1

; Function Attrs: mustprogress nounwind uwtable
define linkonce_odr noundef i64 @_ZN4absl12lts_202308026Status16CodeToInlinedRepENS0_10StatusCodeE(i32 noundef %code) #4 comdat align 2 {
entry:
  %code.addr = alloca i32, align 4
  store i32 %code, ptr %code.addr, align 4
  %0 = load i32, ptr %code.addr, align 4
  %conv = sext i32 %0 to i64
  %shl = shl i64 %conv, 2
  ret i64 %shl
}

; Function Attrs: mustprogress uwtable
define linkonce_odr void @_ZN4absl12lts_202308026StatusC2Ev(ptr noundef nonnull align 8 dereferenceable(8) %this) unnamed_addr #5 comdat align 2 {
entry:
  %this.addr = alloca ptr, align 8
  store ptr %this, ptr %this.addr, align 8
  %this1 = load ptr, ptr %this.addr, align 8
  %rep_ = getelementptr inbounds %"class.absl::lts_20230802::Status", ptr %this1, i32 0, i32 0
  %call = call noundef i64 @_ZN4absl12lts_202308026Status16CodeToInlinedRepENS0_10StatusCodeE(i32 noundef 0)
  store i64 %call, ptr %rep_, align 8
  ret void
}

; Function Attrs: mustprogress uwtable
define linkonce_odr void @_ZN4absl12lts_2023080217internal_statusor12PlacementNewINS0_6StatusEJEEEvPvDpOT0_(ptr noundef nonnull %p) #5 comdat {
entry:
  %p.addr = alloca ptr, align 8
  store ptr %p, ptr %p.addr, align 8
  %0 = load ptr, ptr %p.addr, align 8
  call void @_ZN4absl12lts_202308026StatusC2Ev(ptr noundef nonnull align 8 dereferenceable(8) %0)
  ret void
}

; Function Attrs: mustprogress uwtable
define linkonce_odr void @_ZN4absl12lts_2023080217internal_statusor12StatusOrDataIN9grpc_core17XdsHttpFilterImpl22ServiceConfigJsonEntryEE10MakeStatusIJEEEvDpOT_(ptr noundef nonnull align 8 dereferenceable(72) %this) #5 comdat align 2 {
entry:
  %this.addr = alloca ptr, align 8
  store ptr %this, ptr %this.addr, align 8
  %this1 = load ptr, ptr %this.addr, align 8
  %0 = getelementptr inbounds %"class.absl::lts_20230802::internal_statusor::StatusOrData", ptr %this1, i32 0, i32 0
  call void @_ZN4absl12lts_2023080217internal_statusor12PlacementNewINS0_6StatusEJEEEvPvDpOT0_(ptr noundef %0)
  ret void
}

; Function Attrs: mustprogress nounwind uwtable
define linkonce_odr void @_ZN9grpc_core17XdsHttpFilterImpl22ServiceConfigJsonEntryC2EOS1_(ptr noundef nonnull align 8 dereferenceable(64) %this, ptr noundef nonnull align 8 dereferenceable(64) %0) unnamed_addr #4 comdat align 2 {
entry:
  %this.addr = alloca ptr, align 8
  %.addr = alloca ptr, align 8
  store ptr %this, ptr %this.addr, align 8
  store ptr %0, ptr %.addr, align 8
  %this1 = load ptr, ptr %this.addr, align 8
  %service_config_field_name = getelementptr inbounds %"struct.grpc_core::XdsHttpFilterImpl::ServiceConfigJsonEntry", ptr %this1, i32 0, i32 0
  %1 = load ptr, ptr %.addr, align 8
  %service_config_field_name2 = getelementptr inbounds %"struct.grpc_core::XdsHttpFilterImpl::ServiceConfigJsonEntry", ptr %1, i32 0, i32 0
  call void @_ZNSt7__cxx1112basic_stringIcSt11char_traitsIcESaIcEEC1EOS4_(ptr noundef nonnull align 8 dereferenceable(32) %service_config_field_name, ptr noundef nonnull align 8 dereferenceable(32) %service_config_field_name2) #3
  %element = getelementptr inbounds %"struct.grpc_core::XdsHttpFilterImpl::ServiceConfigJsonEntry", ptr %this1, i32 0, i32 1
  %2 = load ptr, ptr %.addr, align 8
  %element3 = getelementptr inbounds %"struct.grpc_core::XdsHttpFilterImpl::ServiceConfigJsonEntry", ptr %2, i32 0, i32 1
  call void @_ZNSt7__cxx1112basic_stringIcSt11char_traitsIcESaIcEEC1EOS4_(ptr noundef nonnull align 8 dereferenceable(32) %element, ptr noundef nonnull align 8 dereferenceable(32) %element3) #3
  ret void
}

; Function Attrs: mustprogress uwtable
define linkonce_odr void @_ZN4absl12lts_2023080217internal_statusor12StatusOrDataIN9grpc_core17XdsHttpFilterImpl22ServiceConfigJsonEntryEEC2IJS5_EEESt10in_place_tDpOT_(ptr noundef nonnull align 8 dereferenceable(72) %this, ptr noundef nonnull align 8 dereferenceable(64) %args) unnamed_addr #5 comdat align 2 personality ptr @__gxx_personality_v0 {
entry:
  %this.addr = alloca ptr, align 8
  %args.addr = alloca ptr, align 8
  %exn.slot = alloca ptr, align 8
  %ehselector.slot = alloca i32, align 4
  store ptr %this, ptr %this.addr, align 8
  store ptr %args, ptr %args.addr, align 8
  %this1 = load ptr, ptr %this.addr, align 8
  %0 = getelementptr inbounds %"class.absl::lts_20230802::internal_statusor::StatusOrData", ptr %this1, i32 0, i32 1
  %1 = load ptr, ptr %args.addr, align 8
  call void @_ZN9grpc_core17XdsHttpFilterImpl22ServiceConfigJsonEntryC2EOS1_(ptr noundef nonnull align 8 dereferenceable(64) %0, ptr noundef nonnull align 8 dereferenceable(64) %1) #3
  invoke void @_ZN4absl12lts_2023080217internal_statusor12StatusOrDataIN9grpc_core17XdsHttpFilterImpl22ServiceConfigJsonEntryEE10MakeStatusIJEEEvDpOT_(ptr noundef nonnull align 8 dereferenceable(72) %this1)
          to label %invoke.cont unwind label %lpad

invoke.cont:                                      ; preds = %entry
  ret void

lpad:                                             ; preds = %entry
  %2 = landingpad { ptr, i32 }
          cleanup
  %3 = extractvalue { ptr, i32 } %2, 0
  store ptr %3, ptr %exn.slot, align 8
  %4 = extractvalue { ptr, i32 } %2, 1
  store i32 %4, ptr %ehselector.slot, align 4
  call void @_ZN9grpc_core17XdsHttpFilterImpl22ServiceConfigJsonEntryD2Ev(ptr noundef nonnull align 8 dereferenceable(64) %0) #3
  br label %eh.resume

eh.resume:                                        ; preds = %lpad
  %exn = load ptr, ptr %exn.slot, align 8
  %sel = load i32, ptr %ehselector.slot, align 4
  %lpad.val = insertvalue { ptr, i32 } poison, ptr %exn, 0
  %lpad.val2 = insertvalue { ptr, i32 } %lpad.val, i32 %sel, 1
  resume { ptr, i32 } %lpad.val2
}

; Function Attrs: mustprogress uwtable
define linkonce_odr void @_ZN4absl12lts_202308028StatusOrIN9grpc_core17XdsHttpFilterImpl22ServiceConfigJsonEntryEEC2IJS4_EEESt10in_place_tDpOT_(ptr noundef nonnull align 8 dereferenceable(72) %this, ptr noundef nonnull align 8 dereferenceable(64) %args) unnamed_addr #5 comdat align 2 {
entry:
  %this.addr = alloca ptr, align 8
  %args.addr = alloca ptr, align 8
  store ptr %this, ptr %this.addr, align 8
  store ptr %args, ptr %args.addr, align 8
  %this1 = load ptr, ptr %this.addr, align 8
  %0 = load ptr, ptr %args.addr, align 8
  call void @_ZN4absl12lts_2023080217internal_statusor12StatusOrDataIN9grpc_core17XdsHttpFilterImpl22ServiceConfigJsonEntryEEC2IJS5_EEESt10in_place_tDpOT_(ptr noundef nonnull align 8 dereferenceable(72) %this1, ptr noundef nonnull align 8 dereferenceable(64) %0)
  ret void
}

; Function Attrs: mustprogress nounwind uwtable
define linkonce_odr noundef i64 @_ZNSt11char_traitsIcE6lengthEPKc(ptr noundef %__s) #4 comdat align 2 {
entry:
  %__s.addr = alloca ptr, align 8
  store ptr %__s, ptr %__s.addr, align 8
  %0 = load ptr, ptr %__s.addr, align 8
  %call = call i64 @strlen(ptr noundef %0) #3
  ret i64 %call
}

; Function Attrs: mustprogress nounwind uwtable
define linkonce_odr void @_ZNSt7__cxx1112basic_stringIcSt11char_traitsIcESaIcEE12_Alloc_hiderD2Ev(ptr noundef nonnull align 8 dereferenceable(8) %this) unnamed_addr #4 comdat align 2 {
entry:
  %this.addr = alloca ptr, align 8
  store ptr %this, ptr %this.addr, align 8
  %this1 = load ptr, ptr %this.addr, align 8
  call void @_ZNSaIcED2Ev(ptr noundef nonnull align 1 dereferenceable(1) %this1) #3
  ret void
}

; Function Attrs: mustprogress nounwind uwtable
define linkonce_odr void @_ZN9grpc_core17XdsHttpFilterImpl22ServiceConfigJsonEntryD2Ev(ptr noundef nonnull align 8 dereferenceable(64) %this) unnamed_addr #4 comdat align 2 {
entry:
  %this.addr = alloca ptr, align 8
  store ptr %this, ptr %this.addr, align 8
  %this1 = load ptr, ptr %this.addr, align 8
  %element = getelementptr inbounds %"struct.grpc_core::XdsHttpFilterImpl::ServiceConfigJsonEntry", ptr %this1, i32 0, i32 1
  call void @_ZNSt7__cxx1112basic_stringIcSt11char_traitsIcESaIcEED1Ev(ptr noundef nonnull align 8 dereferenceable(32) %element) #3
  %service_config_field_name = getelementptr inbounds %"struct.grpc_core::XdsHttpFilterImpl::ServiceConfigJsonEntry", ptr %this1, i32 0, i32 0
  call void @_ZNSt7__cxx1112basic_stringIcSt11char_traitsIcESaIcEED1Ev(ptr noundef nonnull align 8 dereferenceable(32) %service_config_field_name) #3
  ret void
}

; Function Attrs: mustprogress uwtable
define linkonce_odr void @_ZN4absl12lts_202308028StatusOrIN9grpc_core17XdsHttpFilterImpl22ServiceConfigJsonEntryEEC2IS4_TnNSt9enable_ifIXsr4absl11conjunctionINS0_11disjunctionIJSt7is_sameIS4_NS0_12remove_cvrefIOT_E4typeEENS0_8negationINS8_IJS9_IS5_SE_ES9_INS0_6StatusESE_ES9_ISt10in_place_tSE_ENS0_17internal_statusor31IsDirectInitializationAmbiguousIS4_SC_EEEEEEEEEESt16is_constructibleIS4_JSC_EESt14is_convertibleISC_S4_ENS8_IJS9_INSA_ISB_E4typeES4_ENS0_11conjunctionIJNSG_ISU_ISC_SI_EEENSG_INSM_31HasConversionOperatorToStatusOrIS4_SC_vEEEEEEEEEEEE5valueEiE4typeELi0EEESC_(ptr noundef nonnull align 8 dereferenceable(72) %this, ptr noundef nonnull align 8 dereferenceable(64) %u) unnamed_addr #5 comdat align 2 {
entry:
  %this.addr = alloca ptr, align 8
  %u.addr = alloca ptr, align 8
  store ptr %this, ptr %this.addr, align 8
  store ptr %u, ptr %u.addr, align 8
  %this1 = load ptr, ptr %this.addr, align 8
  %0 = load ptr, ptr %u.addr, align 8
  call void @_ZN4absl12lts_202308028StatusOrIN9grpc_core17XdsHttpFilterImpl22ServiceConfigJsonEntryEEC2IJS4_EEESt10in_place_tDpOT_(ptr noundef nonnull align 8 dereferenceable(72) %this1, ptr noundef nonnull align 8 dereferenceable(64) %0)
  ret void
}

; Function Attrs: mustprogress uwtable
define linkonce_odr void @_ZNSt7__cxx1112basic_stringIcSt11char_traitsIcESaIcEEC2IS3_EEPKcRKS3_(ptr noundef nonnull align 8 dereferenceable(32) %this, ptr noundef %__s, ptr noundef nonnull align 1 dereferenceable(1) %__a) unnamed_addr #5 comdat align 2 personality ptr @__gxx_personality_v0 {
entry:
  %this.addr = alloca ptr, align 8
  %__s.addr = alloca ptr, align 8
  %__a.addr = alloca ptr, align 8
  %exn.slot = alloca ptr, align 8
  %ehselector.slot = alloca i32, align 4
  %__end = alloca ptr, align 8
  store ptr %this, ptr %this.addr, align 8
  store ptr %__s, ptr %__s.addr, align 8
  store ptr %__a, ptr %__a.addr, align 8
  %this1 = load ptr, ptr %this.addr, align 8
  %_M_dataplus = getelementptr inbounds %"class.std::__cxx11::basic_string", ptr %this1, i32 0, i32 0
  %call = call noundef ptr @_ZNSt7__cxx1112basic_stringIcSt11char_traitsIcESaIcEE13_M_local_dataEv(ptr noundef nonnull align 8 dereferenceable(32) %this1)
  %0 = load ptr, ptr %__a.addr, align 8
  call void @_ZNSt7__cxx1112basic_stringIcSt11char_traitsIcESaIcEE12_Alloc_hiderC1EPcRKS3_(ptr noundef nonnull align 8 dereferenceable(8) %_M_dataplus, ptr noundef %call, ptr noundef nonnull align 1 dereferenceable(1) %0)
  %1 = load ptr, ptr %__s.addr, align 8
  %cmp = icmp eq ptr %1, null
  br i1 %cmp, label %if.then, label %if.end

if.then:                                          ; preds = %entry
  invoke void @_ZSt19__throw_logic_errorPKc(ptr noundef @.str.96) #15
          to label %invoke.cont unwind label %lpad

invoke.cont:                                      ; preds = %if.then
  unreachable

lpad:                                             ; preds = %if.end, %if.then
  %2 = landingpad { ptr, i32 }
          cleanup
  %3 = extractvalue { ptr, i32 } %2, 0
  store ptr %3, ptr %exn.slot, align 8
  %4 = extractvalue { ptr, i32 } %2, 1
  store i32 %4, ptr %ehselector.slot, align 4
  call void @_ZNSt7__cxx1112basic_stringIcSt11char_traitsIcESaIcEE12_Alloc_hiderD2Ev(ptr noundef nonnull align 8 dereferenceable(8) %_M_dataplus) #3
  br label %eh.resume

if.end:                                           ; preds = %entry
  %5 = load ptr, ptr %__s.addr, align 8
  %6 = load ptr, ptr %__s.addr, align 8
  %call2 = call noundef i64 @_ZNSt11char_traitsIcE6lengthEPKc(ptr noundef %6)
  %add.ptr = getelementptr inbounds i8, ptr %5, i64 %call2
  store ptr %add.ptr, ptr %__end, align 8
  %7 = load ptr, ptr %__s.addr, align 8
  %8 = load ptr, ptr %__end, align 8
  invoke void @_ZNSt7__cxx1112basic_stringIcSt11char_traitsIcESaIcEE12_M_constructIPKcEEvT_S8_St20forward_iterator_tag(ptr noundef nonnull align 8 dereferenceable(32) %this1, ptr noundef %7, ptr noundef %8)
          to label %invoke.cont3 unwind label %lpad

invoke.cont3:                                     ; preds = %if.end
  ret void

eh.resume:                                        ; preds = %lpad
  %exn = load ptr, ptr %exn.slot, align 8
  %sel = load i32, ptr %ehselector.slot, align 4
  %lpad.val = insertvalue { ptr, i32 } poison, ptr %exn, 0
  %lpad.val4 = insertvalue { ptr, i32 } %lpad.val, i32 %sel, 1
  resume { ptr, i32 } %lpad.val4
}

; Function Attrs: mustprogress uwtable
define void @_ZNK9grpc_core17XdsHttpRbacFilter21GenerateServiceConfigERKNS_17XdsHttpFilterImpl12FilterConfigEPS3_(ptr noalias sret(%"class.absl::lts_20230802::StatusOr") align 8 %agg.result, ptr noundef nonnull align 8 dereferenceable(8) %this, ptr noundef nonnull align 8 dereferenceable(72) %hcm_filter_config, ptr noundef %filter_config_override) unnamed_addr #5 align 2 personality ptr @__gxx_personality_v0 {
entry:
  %result.ptr = alloca ptr, align 8
  %this.addr = alloca ptr, align 8
  %hcm_filter_config.addr = alloca ptr, align 8
  %filter_config_override.addr = alloca ptr, align 8
  %policy_json = alloca ptr, align 8
  %ref.tmp = alloca %"struct.grpc_core::XdsHttpFilterImpl::ServiceConfigJsonEntry", align 8
  %ref.tmp3 = alloca %"class.std::allocator.53", align 1
  %exn.slot = alloca ptr, align 8
  %ehselector.slot = alloca i32, align 4
  store ptr %agg.result, ptr %result.ptr, align 8
  store ptr %this, ptr %this.addr, align 8
  store ptr %hcm_filter_config, ptr %hcm_filter_config.addr, align 8
  store ptr %filter_config_override, ptr %filter_config_override.addr, align 8
  %0 = load ptr, ptr %filter_config_override.addr, align 8
  %cmp = icmp ne ptr %0, null
  br i1 %cmp, label %cond.true, label %cond.false

cond.true:                                        ; preds = %entry
  %1 = load ptr, ptr %filter_config_override.addr, align 8
  %config = getelementptr inbounds %"struct.grpc_core::XdsHttpFilterImpl::FilterConfig", ptr %1, i32 0, i32 1
  br label %cond.end

cond.false:                                       ; preds = %entry
  %2 = load ptr, ptr %hcm_filter_config.addr, align 8
  %config2 = getelementptr inbounds %"struct.grpc_core::XdsHttpFilterImpl::FilterConfig", ptr %2, i32 0, i32 1
  br label %cond.end

cond.end:                                         ; preds = %cond.false, %cond.true
  %cond-lvalue = phi ptr [ %config, %cond.true ], [ %config2, %cond.false ]
  store ptr %cond-lvalue, ptr %policy_json, align 8
  %service_config_field_name = getelementptr inbounds %"struct.grpc_core::XdsHttpFilterImpl::ServiceConfigJsonEntry", ptr %ref.tmp, i32 0, i32 0
  call void @_ZNSaIcEC1Ev(ptr noundef nonnull align 1 dereferenceable(1) %ref.tmp3) #3
  invoke void @_ZNSt7__cxx1112basic_stringIcSt11char_traitsIcESaIcEEC2IS3_EEPKcRKS3_(ptr noundef nonnull align 8 dereferenceable(32) %service_config_field_name, ptr noundef @.str.6, ptr noundef nonnull align 1 dereferenceable(1) %ref.tmp3)
          to label %invoke.cont unwind label %lpad

invoke.cont:                                      ; preds = %cond.end
  %element = getelementptr inbounds %"struct.grpc_core::XdsHttpFilterImpl::ServiceConfigJsonEntry", ptr %ref.tmp, i32 0, i32 1
  %3 = load ptr, ptr %policy_json, align 8
  invoke void @_ZN9grpc_core8JsonDumpB5cxx11ERKNS_12experimental4JsonEi(ptr sret(%"class.std::__cxx11::basic_string") align 8 %element, ptr noundef nonnull align 8 dereferenceable(56) %3, i32 noundef 0)
          to label %invoke.cont5 unwind label %lpad4

invoke.cont5:                                     ; preds = %invoke.cont
  invoke void @_ZN4absl12lts_202308028StatusOrIN9grpc_core17XdsHttpFilterImpl22ServiceConfigJsonEntryEEC2IS4_TnNSt9enable_ifIXsr4absl11conjunctionINS0_11disjunctionIJSt7is_sameIS4_NS0_12remove_cvrefIOT_E4typeEENS0_8negationINS8_IJS9_IS5_SE_ES9_INS0_6StatusESE_ES9_ISt10in_place_tSE_ENS0_17internal_statusor31IsDirectInitializationAmbiguousIS4_SC_EEEEEEEEEESt16is_constructibleIS4_JSC_EESt14is_convertibleISC_S4_ENS8_IJS9_INSA_ISB_E4typeES4_ENS0_11conjunctionIJNSG_ISU_ISC_SI_EEENSG_INSM_31HasConversionOperatorToStatusOrIS4_SC_vEEEEEEEEEEEE5valueEiE4typeELi0EEESC_(ptr noundef nonnull align 8 dereferenceable(72) %agg.result, ptr noundef nonnull align 8 dereferenceable(64) %ref.tmp)
          to label %invoke.cont7 unwind label %lpad6

invoke.cont7:                                     ; preds = %invoke.cont5
  call void @_ZN9grpc_core17XdsHttpFilterImpl22ServiceConfigJsonEntryD2Ev(ptr noundef nonnull align 8 dereferenceable(64) %ref.tmp) #3
  call void @_ZNSaIcED1Ev(ptr noundef nonnull align 1 dereferenceable(1) %ref.tmp3) #3
  ret void

lpad:                                             ; preds = %cond.end
  %4 = landingpad { ptr, i32 }
          cleanup
  %5 = extractvalue { ptr, i32 } %4, 0
  store ptr %5, ptr %exn.slot, align 8
  %6 = extractvalue { ptr, i32 } %4, 1
  store i32 %6, ptr %ehselector.slot, align 4
  br label %ehcleanup

lpad4:                                            ; preds = %invoke.cont
  %7 = landingpad { ptr, i32 }
          cleanup
  %8 = extractvalue { ptr, i32 } %7, 0
  store ptr %8, ptr %exn.slot, align 8
  %9 = extractvalue { ptr, i32 } %7, 1
  store i32 %9, ptr %ehselector.slot, align 4
  call void @_ZNSt7__cxx1112basic_stringIcSt11char_traitsIcESaIcEED1Ev(ptr noundef nonnull align 8 dereferenceable(32) %service_config_field_name) #3
  br label %ehcleanup

lpad6:                                            ; preds = %invoke.cont5
  %10 = landingpad { ptr, i32 }
          cleanup
  %11 = extractvalue { ptr, i32 } %10, 0
  store ptr %11, ptr %exn.slot, align 8
  %12 = extractvalue { ptr, i32 } %10, 1
  store i32 %12, ptr %ehselector.slot, align 4
  call void @_ZN9grpc_core17XdsHttpFilterImpl22ServiceConfigJsonEntryD2Ev(ptr noundef nonnull align 8 dereferenceable(64) %ref.tmp) #3
  br label %ehcleanup

ehcleanup:                                        ; preds = %lpad6, %lpad4, %lpad
  call void @_ZNSaIcED1Ev(ptr noundef nonnull align 1 dereferenceable(1) %ref.tmp3) #3
  br label %eh.resume

eh.resume:                                        ; preds = %ehcleanup
  %exn = load ptr, ptr %exn.slot, align 8
  %sel = load i32, ptr %ehselector.slot, align 4
  %lpad.val = insertvalue { ptr, i32 } poison, ptr %exn, 0
  %lpad.val8 = insertvalue { ptr, i32 } %lpad.val, i32 %sel, 1
  resume { ptr, i32 } %lpad.val8
}