; Function Attrs: mustprogress uwtable
define void @_ZNK9grpc_core17XdsHttpRbacFilter21GenerateServiceConfigERKNS_17XdsHttpFilterImpl12FilterConfigEPS3_(ptr noalias sret(%"class.absl::lts_20230802::StatusOr") align 8 %agg.result, ptr nocapture nonnull readnone align 8 %this, ptr noundef nonnull align 8 dereferenceable(72) %hcm_filter_config, ptr noundef %filter_config_override) unnamed_addr #4 align 2 personality ptr @__gxx_personality_v0 {
entry:
  %ref.tmp = alloca %"struct.grpc_core::XdsHttpFilterImpl::ServiceConfigJsonEntry", align 8
  %ref.tmp3 = alloca %"class.std::allocator.53", align 1
  call void @_ZNSaIcEC1Ev(ptr noundef nonnull align 1 dereferenceable(1) %ref.tmp3) #22
  %call.i3 = invoke noundef ptr @_ZNSt7__cxx1112basic_stringIcSt11char_traitsIcESaIcEE13_M_local_dataEv(ptr noundef nonnull align 8 dereferenceable(32) %ref.tmp)
          to label %call.i.noexc unwind label %lpad

call.i.noexc:                                     ; preds = %entry
  invoke void @_ZNSt7__cxx1112basic_stringIcSt11char_traitsIcESaIcEE12_Alloc_hiderC1EPcRKS3_(ptr noundef nonnull align 8 dereferenceable(8) %ref.tmp, ptr noundef %call.i3, ptr noundef nonnull align 1 dereferenceable(1) %ref.tmp3)
          to label %.noexc unwind label %lpad

.noexc:                                           ; preds = %call.i.noexc
  invoke void @_ZNSt7__cxx1112basic_stringIcSt11char_traitsIcESaIcEE12_M_constructIPKcEEvT_S8_St20forward_iterator_tag(ptr noundef nonnull align 8 dereferenceable(32) %ref.tmp, ptr noundef nonnull @.str.6, ptr noundef nonnull getelementptr inbounds ([11 x i8], ptr @.str.6, i64 0, i64 10))
          to label %invoke.cont unwind label %lpad.i

lpad.i:                                           ; preds = %.noexc
  %0 = landingpad { ptr, i32 }
          cleanup
  call void @_ZNSaIcED2Ev(ptr noundef nonnull align 1 dereferenceable(1) %ref.tmp) #22
  br label %ehcleanup

invoke.cont:                                      ; preds = %.noexc
  %cmp.not = icmp eq ptr %filter_config_override, null
  %cond-lvalue.v = select i1 %cmp.not, ptr %hcm_filter_config, ptr %filter_config_override
  %cond-lvalue = getelementptr inbounds i8, ptr %cond-lvalue.v, i64 16
  %element = getelementptr inbounds i8, ptr %ref.tmp, i64 32
  invoke void @_ZN9grpc_core8JsonDumpB5cxx11ERKNS_12experimental4JsonEi(ptr nonnull sret(%"class.std::__cxx11::basic_string") align 8 %element, ptr noundef nonnull align 8 dereferenceable(56) %cond-lvalue, i32 noundef 0)
          to label %invoke.cont7 unwind label %lpad4

invoke.cont7:                                     ; preds = %invoke.cont
  %1 = getelementptr inbounds i8, ptr %agg.result, i64 8
  call void @_ZNSt7__cxx1112basic_stringIcSt11char_traitsIcESaIcEEC1EOS4_(ptr noundef nonnull align 8 dereferenceable(32) %1, ptr noundef nonnull align 8 dereferenceable(32) %ref.tmp) #22
  %element.i.i.i.i = getelementptr inbounds i8, ptr %agg.result, i64 40
  call void @_ZNSt7__cxx1112basic_stringIcSt11char_traitsIcESaIcEEC1EOS4_(ptr noundef nonnull align 8 dereferenceable(32) %element.i.i.i.i, ptr noundef nonnull align 8 dereferenceable(32) %element) #22
  store i64 0, ptr %agg.result, align 8
  call void @_ZNSt7__cxx1112basic_stringIcSt11char_traitsIcESaIcEED1Ev(ptr noundef nonnull align 8 dereferenceable(32) %element) #22
  call void @_ZNSt7__cxx1112basic_stringIcSt11char_traitsIcESaIcEED1Ev(ptr noundef nonnull align 8 dereferenceable(32) %ref.tmp) #22
  call void @_ZNSaIcED1Ev(ptr noundef nonnull align 1 dereferenceable(1) %ref.tmp3) #22
  ret void

lpad:                                             ; preds = %call.i.noexc, %entry
  %2 = landingpad { ptr, i32 }
          cleanup
  br label %ehcleanup

lpad4:                                            ; preds = %invoke.cont
  %3 = landingpad { ptr, i32 }
          cleanup
  call void @_ZNSt7__cxx1112basic_stringIcSt11char_traitsIcESaIcEED1Ev(ptr noundef nonnull align 8 dereferenceable(32) %ref.tmp) #22
  br label %ehcleanup

ehcleanup:                                        ; preds = %lpad, %lpad.i, %lpad4
  %.pn = phi { ptr, i32 } [ %3, %lpad4 ], [ %2, %lpad ], [ %0, %lpad.i ]
  call void @_ZNSaIcED1Ev(ptr noundef nonnull align 1 dereferenceable(1) %ref.tmp3) #22
  resume { ptr, i32 } %.pn
}